; ModuleID = '10/1864.c'
source_filename = "10/1864.c"
target datalayout = "e-m:e-p270:32:32-p271:32:32-p272:64:64-i64:64-f80:128-n8:16:32:64-S128"
target triple = "x86_64-pc-linux-gnu"

@.str = private unnamed_addr constant [3 x i8] c"%d\00", align 1

; Function Attrs: noinline nounwind uwtable
define dso_local void @main() #0 {
  %1 = alloca [30 x i32], align 16
  %2 = alloca [30 x i32], align 16
  %3 = alloca i32, align 4
  %4 = alloca i32, align 4
  %5 = alloca i32, align 4
  %6 = alloca i32, align 4
  %7 = alloca i32, align 4
  store i32 1, i32* %7, align 4
  %8 = call i32 (i8*, ...) @__isoc99_scanf(i8* getelementptr inbounds ([3 x i8], [3 x i8]* @.str, i64 0, i64 0), i32* %6)
  store i32 1, i32* %3, align 4
  br label %9

9:                                                ; preds = %21, %0
  %10 = load i32, i32* %3, align 4
  %11 = load i32, i32* %6, align 4
  %12 = icmp sle i32 %10, %11
  br i1 %12, label %13, label %24

13:                                               ; preds = %9
  %14 = load i32, i32* %3, align 4
  %15 = sext i32 %14 to i64
  %16 = getelementptr inbounds [30 x i32], [30 x i32]* %1, i64 0, i64 %15
  %17 = call i32 (i8*, ...) @__isoc99_scanf(i8* getelementptr inbounds ([3 x i8], [3 x i8]* @.str, i64 0, i64 0), i32* %16)
  %18 = load i32, i32* %3, align 4
  %19 = sext i32 %18 to i64
  %20 = getelementptr inbounds [30 x i32], [30 x i32]* %2, i64 0, i64 %19
  store i32 1, i32* %20, align 4
  br label %21

21:                                               ; preds = %13
  %22 = load i32, i32* %3, align 4
  %23 = add nsw i32 %22, 1
  store i32 %23, i32* %3, align 4
  br label %9

24:                                               ; preds = %9
  %25 = load i32, i32* %6, align 4
  %26 = sub nsw i32 %25, 1
  store i32 %26, i32* %3, align 4
  br label %27

27:                                               ; preds = %84, %24
  %28 = load i32, i32* %3, align 4
  %29 = icmp sge i32 %28, 1
  br i1 %29, label %30, label %87

30:                                               ; preds = %27
  %31 = load i32, i32* %3, align 4
  %32 = add nsw i32 %31, 1
  store i32 %32, i32* %4, align 4
  br label %33

33:                                               ; preds = %68, %30
  %34 = load i32, i32* %4, align 4
  %35 = load i32, i32* %6, align 4
  %36 = icmp sle i32 %34, %35
  br i1 %36, label %37, label %71

37:                                               ; preds = %33
  %38 = load i32, i32* %3, align 4
  %39 = sext i32 %38 to i64
  %40 = getelementptr inbounds [30 x i32], [30 x i32]* %1, i64 0, i64 %39
  %41 = load i32, i32* %40, align 4
  %42 = load i32, i32* %4, align 4
  %43 = sext i32 %42 to i64
  %44 = getelementptr inbounds [30 x i32], [30 x i32]* %1, i64 0, i64 %43
  %45 = load i32, i32* %44, align 4
  %46 = icmp sge i32 %41, %45
  br i1 %46, label %47, label %67

47:                                               ; preds = %37
  %48 = load i32, i32* %3, align 4
  %49 = sext i32 %48 to i64
  %50 = getelementptr inbounds [30 x i32], [30 x i32]* %2, i64 0, i64 %49
  %51 = load i32, i32* %50, align 4
  %52 = load i32, i32* %4, align 4
  %53 = sext i32 %52 to i64
  %54 = getelementptr inbounds [30 x i32], [30 x i32]* %2, i64 0, i64 %53
  %55 = load i32, i32* %54, align 4
  %56 = add nsw i32 %55, 1
  %57 = icmp slt i32 %51, %56
  br i1 %57, label %58, label %67

58:                                               ; preds = %47
  %59 = load i32, i32* %4, align 4
  %60 = sext i32 %59 to i64
  %61 = getelementptr inbounds [30 x i32], [30 x i32]* %2, i64 0, i64 %60
  %62 = load i32, i32* %61, align 4
  %63 = add nsw i32 %62, 1
  %64 = load i32, i32* %3, align 4
  %65 = sext i32 %64 to i64
  %66 = getelementptr inbounds [30 x i32], [30 x i32]* %2, i64 0, i64 %65
  store i32 %63, i32* %66, align 4
  br label %67

67:                                               ; preds = %58, %47, %37
  br label %68

68:                                               ; preds = %67
  %69 = load i32, i32* %4, align 4
  %70 = add nsw i32 %69, 1
  store i32 %70, i32* %4, align 4
  br label %33

71:                                               ; preds = %33
  %72 = load i32, i32* %3, align 4
  %73 = sext i32 %72 to i64
  %74 = getelementptr inbounds [30 x i32], [30 x i32]* %2, i64 0, i64 %73
  %75 = load i32, i32* %74, align 4
  %76 = load i32, i32* %7, align 4
  %77 = icmp sgt i32 %75, %76
  br i1 %77, label %78, label %83

78:                                               ; preds = %71
  %79 = load i32, i32* %3, align 4
  %80 = sext i32 %79 to i64
  %81 = getelementptr inbounds [30 x i32], [30 x i32]* %2, i64 0, i64 %80
  %82 = load i32, i32* %81, align 4
  store i32 %82, i32* %7, align 4
  br label %83

83:                                               ; preds = %78, %71
  br label %84

84:                                               ; preds = %83
  %85 = load i32, i32* %3, align 4
  %86 = add nsw i32 %85, -1
  store i32 %86, i32* %3, align 4
  br label %27

87:                                               ; preds = %27
  %88 = load i32, i32* %7, align 4
  %89 = call i32 (i8*, ...) @printf(i8* getelementptr inbounds ([3 x i8], [3 x i8]* @.str, i64 0, i64 0), i32 %88)
  ret void
}

declare dso_local i32 @__isoc99_scanf(i8*, ...) #1

declare dso_local i32 @printf(i8*, ...) #1


!llvm.module.flags = !{!0}
!llvm.ident = !{!1}

!0 = !{i32 1, !"wchar_size", i32 4}
!1 = !{!"clang version 10.0.0-4ubuntu1 "}
